; Function Attrs: mustprogress nounwind uwtable
define hidden void @_ZN14MacroAssembler5evxorE9BasicType11XMMRegister9KRegisterS1_7Addressbi(ptr noundef nonnull align 8 dereferenceable(40) %0, i8 noundef zeroext %1, i32 %2, i32 %3, i32 %4, ptr noundef %5, i1 noundef zeroext %6, i32 noundef %7) local_unnamed_addr #0 align 2 {
  %9 = alloca %class.Address, align 8
  %10 = alloca %class.Address, align 8
  switch i8 %1, label %23 [
    i8 10, label %11
    i8 11, label %17
  ]

11:                                               ; preds = %8
  call void @llvm.memcpy.p0.p0.i64(ptr noundef nonnull align 8 dereferenceable(21) %9, ptr noundef nonnull align 8 dereferenceable(21) %5, i64 21, i1 false)
  %12 = getelementptr inbounds i8, ptr %9, i64 24
  %13 = getelementptr inbounds i8, ptr %5, i64 24
  %14 = load ptr, ptr %13, align 8
  %15 = getelementptr inbounds i8, ptr %14, i64 16
  %16 = load ptr, ptr %15, align 8
  call void %16(ptr noundef nonnull align 8 dereferenceable(20) %13, ptr noundef nonnull align 8 dereferenceable(40) %12) #18
  call void @_ZN9Assembler7evpxordE11XMMRegister9KRegisterS0_7Addressbi(ptr noundef nonnull align 8 dereferenceable(40) %0, i32 %2, i32 %3, i32 %4, ptr noundef nonnull %9, i1 noundef zeroext %6, i32 noundef %7) #18
  br label %26

17:                                               ; preds = %8
  call void @llvm.memcpy.p0.p0.i64(ptr noundef nonnull align 8 dereferenceable(21) %10, ptr noundef nonnull align 8 dereferenceable(21) %5, i64 21, i1 false)
  %18 = getelementptr inbounds i8, ptr %10, i64 24
  %19 = getelementptr inbounds i8, ptr %5, i64 24
  %20 = load ptr, ptr %19, align 8
  %21 = getelementptr inbounds i8, ptr %20, i64 16
  %22 = load ptr, ptr %21, align 8
  call void %22(ptr noundef nonnull align 8 dereferenceable(20) %19, ptr noundef nonnull align 8 dereferenceable(40) %18) #18
  call void @_ZN9Assembler7evpxorqE11XMMRegister9KRegisterS0_7Addressbi(ptr noundef nonnull align 8 dereferenceable(40) %0, i32 %2, i32 %3, i32 %4, ptr noundef nonnull %10, i1 noundef zeroext %6, i32 noundef %7) #18
  br label %26

23:                                               ; preds = %8
  %24 = load ptr, ptr @g_assert_poison, align 8
  store i8 88, ptr %24, align 1
  %25 = tail call noundef ptr @_Z9type2name9BasicType(i8 noundef zeroext %1) #18
  tail call void (i32, ptr, i32, ptr, ...) @_Z12report_fatal11VMErrorTypePKciS1_z(i32 noundef -536870912, ptr noundef nonnull @.str, i32 noundef 9575, ptr noundef nonnull @.str.41, ptr noundef %25) #19
  unreachable

26:                                               ; preds = %17, %11
  ret void
}